; Function Attrs: mustprogress nofree norecurse nosync nounwind sspstrong willreturn memory(argmem: write) uwtable
define void @_ZN4FLAC8Metadata13VorbisComment5Entry4zeroEv(ptr nocapture noundef nonnull writeonly align 8 dereferenceable(60) %this) local_unnamed_addr #12 align 2 {
entry:
  %is_valid_ = getelementptr inbounds i8, ptr %this, i64 8
  store i8 1, ptr %is_valid_, align 8
  %entry_ = getelementptr inbounds i8, ptr %this, i64 16
  store i32 0, ptr %entry_, align 8
  %entry3 = getelementptr inbounds i8, ptr %this, i64 24
  %field_value_ = getelementptr inbounds i8, ptr %this, i64 48
  store ptr null, ptr %field_value_, align 8
  %field_value_length_ = getelementptr inbounds i8, ptr %this, i64 56
  store i32 0, ptr %field_value_length_, align 8
  tail call void @llvm.memset.p0.i64(ptr noundef nonnull align 8 dereferenceable(20) %entry3, i8 0, i64 20, i1 false)
  ret void
}